target datalayout = "e-m:e-p270:32:32-p271:32:32-p272:64:64-i64:64-i128:128-f80:128-n8:16:32:64-S128"
target triple = "x86_64-pc-linux-gnu"

%"class.std::_Function_base" = type { %"union.std::_Any_data", ptr }
%"union.std::_Any_data" = type { %"union.std::_Nocopy_types" }
%"union.std::_Nocopy_types" = type { { i64, i64 } }
%class.CSC_RowIterator = type { i32, i32, double, i8, %"class.std::function.197" }
%"class.std::function.197" = type { %"class.std::_Function_base", ptr }

; Function Attrs: mustprogress nounwind uwtable
define linkonce_odr noundef zeroext i1 @_ZNKSt14_Function_base8_M_emptyEv(ptr noundef nonnull align 8 dereferenceable(24) %0) #5 comdat align 2 {
  %2 = alloca ptr, align 8
  store ptr %0, ptr %2, align 8, !tbaa !421
  %3 = load ptr, ptr %2, align 8
  %4 = getelementptr inbounds nuw %"class.std::_Function_base", ptr %3, i32 0, i32 1
  %5 = load ptr, ptr %4, align 8, !tbaa !423
  %6 = icmp ne ptr %5, null
  %7 = xor i1 %6, true
  ret i1 %7
}

; Function Attrs: inlinehint mustprogress nounwind uwtable
define linkonce_odr void @_ZSt4swapIPFSt4pairIidERKSt9_Any_dataOiEENSt9enable_ifIXsr6__and_ISt6__not_ISt15__is_tuple_likeIT_EESt21is_move_constructibleISB_ESt18is_move_assignableISB_EEE5valueEvE4typeERSB_SK_(ptr noundef nonnull align 8 dereferenceable(8) %0, ptr noundef nonnull align 8 dereferenceable(8) %1) #12 comdat {
  %3 = alloca ptr, align 8
  %4 = alloca ptr, align 8
  %5 = alloca ptr, align 8
  store ptr %0, ptr %3, align 8, !tbaa !411
  store ptr %1, ptr %4, align 8, !tbaa !411
  call void @llvm.lifetime.start.p0(i64 8, ptr %5) #3
  %6 = load ptr, ptr %3, align 8, !tbaa !411
  %7 = load ptr, ptr %6, align 8, !tbaa !40
  store ptr %7, ptr %5, align 8, !tbaa !40
  %8 = load ptr, ptr %4, align 8, !tbaa !411
  %9 = load ptr, ptr %8, align 8, !tbaa !40
  %10 = load ptr, ptr %3, align 8, !tbaa !411
  store ptr %9, ptr %10, align 8, !tbaa !40
  %11 = load ptr, ptr %5, align 8, !tbaa !40
  %12 = load ptr, ptr %4, align 8, !tbaa !411
  store ptr %11, ptr %12, align 8, !tbaa !40
  call void @llvm.lifetime.end.p0(i64 8, ptr %5) #3
  ret void
}

; Function Attrs: inlinehint mustprogress nounwind uwtable
define linkonce_odr void @_ZSt4swapIPFbRSt9_Any_dataRKS0_St18_Manager_operationEENSt9enable_ifIXsr6__and_ISt6__not_ISt15__is_tuple_likeIT_EESt21is_move_constructibleISA_ESt18is_move_assignableISA_EEE5valueEvE4typeERSA_SJ_(ptr noundef nonnull align 8 dereferenceable(8) %0, ptr noundef nonnull align 8 dereferenceable(8) %1) #12 comdat {
  %3 = alloca ptr, align 8
  %4 = alloca ptr, align 8
  %5 = alloca ptr, align 8
  store ptr %0, ptr %3, align 8, !tbaa !411
  store ptr %1, ptr %4, align 8, !tbaa !411
  call void @llvm.lifetime.start.p0(i64 8, ptr %5) #3
  %6 = load ptr, ptr %3, align 8, !tbaa !411
  %7 = load ptr, ptr %6, align 8, !tbaa !40
  store ptr %7, ptr %5, align 8, !tbaa !40
  %8 = load ptr, ptr %4, align 8, !tbaa !411
  %9 = load ptr, ptr %8, align 8, !tbaa !40
  %10 = load ptr, ptr %3, align 8, !tbaa !411
  store ptr %9, ptr %10, align 8, !tbaa !40
  %11 = load ptr, ptr %5, align 8, !tbaa !40
  %12 = load ptr, ptr %4, align 8, !tbaa !411
  store ptr %11, ptr %12, align 8, !tbaa !40
  call void @llvm.lifetime.end.p0(i64 8, ptr %5) #3
  ret void
}

; Function Attrs: inlinehint mustprogress nounwind uwtable
define linkonce_odr void @_ZSt4swapISt9_Any_dataENSt9enable_ifIXsr6__and_ISt6__not_ISt15__is_tuple_likeIT_EESt21is_move_constructibleIS4_ESt18is_move_assignableIS4_EEE5valueEvE4typeERS4_SD_(ptr noundef nonnull align 8 dereferenceable(16) %0, ptr noundef nonnull align 8 dereferenceable(16) %1) #12 comdat {
  %3 = alloca ptr, align 8
  %4 = alloca ptr, align 8
  %5 = alloca %"union.std::_Any_data", align 8
  store ptr %0, ptr %3, align 8, !tbaa !715
  store ptr %1, ptr %4, align 8, !tbaa !715
  call void @llvm.lifetime.start.p0(i64 16, ptr %5) #3
  %6 = load ptr, ptr %3, align 8, !tbaa !715
  call void @llvm.memcpy.p0.p0.i64(ptr align 8 %5, ptr align 8 %6, i64 16, i1 false), !tbaa.struct !819
  %7 = load ptr, ptr %4, align 8, !tbaa !715
  %8 = load ptr, ptr %3, align 8, !tbaa !715
  call void @llvm.memcpy.p0.p0.i64(ptr align 8 %8, ptr align 8 %7, i64 16, i1 false), !tbaa.struct !819
  %9 = load ptr, ptr %4, align 8, !tbaa !715
  call void @llvm.memcpy.p0.p0.i64(ptr align 8 %9, ptr align 8 %5, i64 16, i1 false), !tbaa.struct !819
  call void @llvm.lifetime.end.p0(i64 16, ptr %5) #3
  ret void
}

; Function Attrs: mustprogress nounwind uwtable
define linkonce_odr noundef zeroext i1 @_ZNKSt8functionIFSt4pairIidEiEEcvbEv(ptr noundef nonnull align 8 dereferenceable(32) %0) #5 comdat align 2 {
  %2 = alloca ptr, align 8
  store ptr %0, ptr %2, align 8, !tbaa !2128
  %3 = load ptr, ptr %2, align 8
  %4 = call noundef zeroext i1 @_ZNKSt14_Function_base8_M_emptyEv(ptr noundef nonnull align 8 dereferenceable(24) %3)
  %5 = xor i1 %4, true
  ret i1 %5
}

; Function Attrs: mustprogress nounwind uwtable
define linkonce_odr void @_ZNSt8functionIFSt4pairIidEiEE4swapERS3_(ptr noundef nonnull align 8 dereferenceable(32) %0, ptr noundef nonnull align 8 dereferenceable(32) %1) #5 comdat align 2 {
  %3 = alloca ptr, align 8
  %4 = alloca ptr, align 8
  store ptr %0, ptr %3, align 8, !tbaa !2128
  store ptr %1, ptr %4, align 8, !tbaa !2128
  %5 = load ptr, ptr %3, align 8
  %6 = getelementptr inbounds nuw %"class.std::_Function_base", ptr %5, i32 0, i32 0
  %7 = load ptr, ptr %4, align 8, !tbaa !2128
  %8 = getelementptr inbounds nuw %"class.std::_Function_base", ptr %7, i32 0, i32 0
  call void @_ZSt4swapISt9_Any_dataENSt9enable_ifIXsr6__and_ISt6__not_ISt15__is_tuple_likeIT_EESt21is_move_constructibleIS4_ESt18is_move_assignableIS4_EEE5valueEvE4typeERS4_SD_(ptr noundef nonnull align 8 dereferenceable(16) %6, ptr noundef nonnull align 8 dereferenceable(16) %8) #3
  %9 = getelementptr inbounds nuw %"class.std::_Function_base", ptr %5, i32 0, i32 1
  %10 = load ptr, ptr %4, align 8, !tbaa !2128
  %11 = getelementptr inbounds nuw %"class.std::_Function_base", ptr %10, i32 0, i32 1
  call void @_ZSt4swapIPFbRSt9_Any_dataRKS0_St18_Manager_operationEENSt9enable_ifIXsr6__and_ISt6__not_ISt15__is_tuple_likeIT_EESt21is_move_constructibleISA_ESt18is_move_assignableISA_EEE5valueEvE4typeERSA_SJ_(ptr noundef nonnull align 8 dereferenceable(8) %9, ptr noundef nonnull align 8 dereferenceable(8) %11) #3
  %12 = getelementptr inbounds nuw %"class.std::function.197", ptr %5, i32 0, i32 1
  %13 = load ptr, ptr %4, align 8, !tbaa !2128
  %14 = getelementptr inbounds nuw %"class.std::function.197", ptr %13, i32 0, i32 1
  call void @_ZSt4swapIPFSt4pairIidERKSt9_Any_dataOiEENSt9enable_ifIXsr6__and_ISt6__not_ISt15__is_tuple_likeIT_EESt21is_move_constructibleISB_ESt18is_move_assignableISB_EEE5valueEvE4typeERSB_SK_(ptr noundef nonnull align 8 dereferenceable(8) %12, ptr noundef nonnull align 8 dereferenceable(8) %14) #3
  ret void
}

; Function Attrs: mustprogress nounwind uwtable
define linkonce_odr void @_ZNSt8functionIFSt4pairIidEiEEC2EOS3_(ptr noundef nonnull align 8 dereferenceable(32) %0, ptr noundef nonnull align 8 dereferenceable(32) %1) unnamed_addr #5 comdat align 2 {
  %3 = alloca ptr, align 8
  %4 = alloca ptr, align 8
  store ptr %0, ptr %3, align 8, !tbaa !2128
  store ptr %1, ptr %4, align 8, !tbaa !2128
  %5 = load ptr, ptr %3, align 8
  %6 = getelementptr inbounds i8, ptr %5, i64 0
  call void @llvm.memset.p0.i64(ptr align 8 %6, i8 0, i64 24, i1 false)
  call void @_ZNSt14_Function_baseC2Ev(ptr noundef nonnull align 8 dereferenceable(24) %5) #3
  %7 = getelementptr inbounds nuw %"class.std::function.197", ptr %5, i32 0, i32 1
  %8 = load ptr, ptr %4, align 8, !tbaa !2128
  %9 = getelementptr inbounds nuw %"class.std::function.197", ptr %8, i32 0, i32 1
  %10 = load ptr, ptr %9, align 8, !tbaa !2130
  store ptr %10, ptr %7, align 8, !tbaa !2130
  %11 = load ptr, ptr %4, align 8, !tbaa !2128
  %12 = call noundef zeroext i1 @_ZNKSt8functionIFSt4pairIidEiEEcvbEv(ptr noundef nonnull align 8 dereferenceable(32) %11) #3
  br i1 %12, label %13, label %25

13:                                               ; preds = %2
  %14 = load ptr, ptr %4, align 8, !tbaa !2128
  %15 = getelementptr inbounds nuw %"class.std::_Function_base", ptr %14, i32 0, i32 0
  %16 = getelementptr inbounds nuw %"class.std::_Function_base", ptr %5, i32 0, i32 0
  call void @llvm.memcpy.p0.p0.i64(ptr align 8 %16, ptr align 8 %15, i64 16, i1 false), !tbaa.struct !819
  %17 = load ptr, ptr %4, align 8, !tbaa !2128
  %18 = getelementptr inbounds nuw %"class.std::_Function_base", ptr %17, i32 0, i32 1
  %19 = load ptr, ptr %18, align 8, !tbaa !423
  %20 = getelementptr inbounds nuw %"class.std::_Function_base", ptr %5, i32 0, i32 1
  store ptr %19, ptr %20, align 8, !tbaa !423
  %21 = load ptr, ptr %4, align 8, !tbaa !2128
  %22 = getelementptr inbounds nuw %"class.std::_Function_base", ptr %21, i32 0, i32 1
  store ptr null, ptr %22, align 8, !tbaa !423
  %23 = load ptr, ptr %4, align 8, !tbaa !2128
  %24 = getelementptr inbounds nuw %"class.std::function.197", ptr %23, i32 0, i32 1
  store ptr null, ptr %24, align 8, !tbaa !2130
  br label %25

25:                                               ; preds = %13, %2
  ret void
}

; Function Attrs: mustprogress nounwind uwtable
define linkonce_odr void @_ZNSt14_Function_baseC2Ev(ptr noundef nonnull align 8 dereferenceable(24) %0) unnamed_addr #5 comdat align 2 {
  %2 = alloca ptr, align 8
  store ptr %0, ptr %2, align 8, !tbaa !421
  %3 = load ptr, ptr %2, align 8
  %4 = getelementptr inbounds nuw %"class.std::_Function_base", ptr %3, i32 0, i32 0
  store ptr null, ptr %4, align 8, !tbaa !25
  %5 = getelementptr inbounds nuw %"class.std::_Function_base", ptr %3, i32 0, i32 1
  store ptr null, ptr %5, align 8, !tbaa !423
  ret void
}

; Function Attrs: mustprogress nounwind uwtable
define linkonce_odr void @_ZNSt14_Function_baseD2Ev(ptr noundef nonnull align 8 dereferenceable(24) %0) unnamed_addr #5 comdat align 2 personality ptr @__gxx_personality_v0 {
  %2 = alloca ptr, align 8
  store ptr %0, ptr %2, align 8, !tbaa !421
  %3 = load ptr, ptr %2, align 8
  %4 = getelementptr inbounds nuw %"class.std::_Function_base", ptr %3, i32 0, i32 1
  %5 = load ptr, ptr %4, align 8, !tbaa !423
  %6 = icmp ne ptr %5, null
  br i1 %6, label %7, label %14

7:                                                ; preds = %1
  %8 = getelementptr inbounds nuw %"class.std::_Function_base", ptr %3, i32 0, i32 1
  %9 = load ptr, ptr %8, align 8, !tbaa !423
  %10 = getelementptr inbounds nuw %"class.std::_Function_base", ptr %3, i32 0, i32 0
  %11 = getelementptr inbounds nuw %"class.std::_Function_base", ptr %3, i32 0, i32 0
  %12 = invoke noundef zeroext i1 %9(ptr noundef nonnull align 8 dereferenceable(16) %10, ptr noundef nonnull align 8 dereferenceable(16) %11, i32 noundef 3)
          to label %13 unwind label %15

13:                                               ; preds = %7
  br label %14

14:                                               ; preds = %13, %1
  ret void

15:                                               ; preds = %7
  %16 = landingpad { ptr, i32 }
          catch ptr null
  %17 = extractvalue { ptr, i32 } %16, 0
  call void @__clang_call_terminate(ptr %17) #30
  unreachable
}

; Function Attrs: mustprogress nounwind uwtable
define linkonce_odr noundef nonnull align 8 dereferenceable(32) ptr @_ZNSt8functionIFSt4pairIidEiEEaSEOS3_(ptr noundef nonnull align 8 dereferenceable(32) %0, ptr noundef nonnull align 8 dereferenceable(32) %1) #5 comdat align 2 {
  %3 = alloca ptr, align 8
  %4 = alloca ptr, align 8
  %5 = alloca %"class.std::function.197", align 8
  store ptr %0, ptr %3, align 8, !tbaa !2128
  store ptr %1, ptr %4, align 8, !tbaa !2128
  %6 = load ptr, ptr %3, align 8
  call void @llvm.lifetime.start.p0(i64 32, ptr %5) #3
  %7 = load ptr, ptr %4, align 8, !tbaa !2128
  call void @_ZNSt8functionIFSt4pairIidEiEEC2EOS3_(ptr noundef nonnull align 8 dereferenceable(32) %5, ptr noundef nonnull align 8 dereferenceable(32) %7) #3
  call void @_ZNSt8functionIFSt4pairIidEiEE4swapERS3_(ptr noundef nonnull align 8 dereferenceable(32) %5, ptr noundef nonnull align 8 dereferenceable(32) %6) #3
  call void @_ZNSt14_Function_baseD2Ev(ptr noundef nonnull align 8 dereferenceable(32) %5) #3
  call void @llvm.lifetime.end.p0(i64 32, ptr %5) #3
  ret ptr %6
}

; Function Attrs: mustprogress nounwind uwtable
define linkonce_odr void @_ZNSt8functionIFSt4pairIidEiEEC2Ev(ptr noundef nonnull align 8 dereferenceable(32) %0) unnamed_addr #5 comdat align 2 {
  %2 = alloca ptr, align 8
  store ptr %0, ptr %2, align 8, !tbaa !2128
  %3 = load ptr, ptr %2, align 8
  %4 = getelementptr inbounds i8, ptr %3, i64 0
  call void @llvm.memset.p0.i64(ptr align 8 %4, i8 0, i64 24, i1 false)
  call void @_ZNSt14_Function_baseC2Ev(ptr noundef nonnull align 8 dereferenceable(24) %3) #3
  %5 = getelementptr inbounds nuw %"class.std::function.197", ptr %3, i32 0, i32 1
  store ptr null, ptr %5, align 8, !tbaa !2130
  ret void
}

; Function Attrs: mustprogress uwtable
define void @_ZN15CSC_RowIteratorC2EPKviPKiS1_illi(ptr noundef nonnull align 8 dereferenceable(56) %0, ptr noundef %1, i32 noundef %2, ptr noundef %3, ptr noundef %4, i32 noundef %5, i64 noundef %6, i64 noundef %7, i32 noundef %8) unnamed_addr #4 align 2 personality ptr @__gxx_personality_v0 {
  %10 = alloca ptr, align 8
  %11 = alloca ptr, align 8
  %12 = alloca i32, align 4
  %13 = alloca ptr, align 8
  %14 = alloca ptr, align 8
  %15 = alloca i32, align 4
  %16 = alloca i64, align 8
  %17 = alloca i64, align 8
  %18 = alloca i32, align 4
  %19 = alloca %"class.std::function.197", align 8
  %20 = alloca ptr, align 8
  %21 = alloca i32, align 4
  store ptr %0, ptr %10, align 8, !tbaa !871
  store ptr %1, ptr %11, align 8, !tbaa !40
  store i32 %2, ptr %12, align 4, !tbaa !28
  store ptr %3, ptr %13, align 8, !tbaa !41
  store ptr %4, ptr %14, align 8, !tbaa !40
  store i32 %5, ptr %15, align 4, !tbaa !28
  store i64 %6, ptr %16, align 8, !tbaa !4
  store i64 %7, ptr %17, align 8, !tbaa !4
  store i32 %8, ptr %18, align 4, !tbaa !28
  %22 = load ptr, ptr %10, align 8
  %23 = getelementptr inbounds nuw %class.CSC_RowIterator, ptr %22, i32 0, i32 0
  store i32 0, ptr %23, align 8, !tbaa !877
  %24 = getelementptr inbounds nuw %class.CSC_RowIterator, ptr %22, i32 0, i32 1
  store i32 -1, ptr %24, align 4, !tbaa !873
  %25 = getelementptr inbounds nuw %class.CSC_RowIterator, ptr %22, i32 0, i32 2
  store double 0.000000e+00, ptr %25, align 8, !tbaa !878
  %26 = getelementptr inbounds nuw %class.CSC_RowIterator, ptr %22, i32 0, i32 3
  store i8 0, ptr %26, align 8, !tbaa !876
  %27 = getelementptr inbounds nuw %class.CSC_RowIterator, ptr %22, i32 0, i32 4
  call void @_ZNSt8functionIFSt4pairIidEiEEC2Ev(ptr noundef nonnull align 8 dereferenceable(32) %27) #3
  call void @llvm.lifetime.start.p0(i64 32, ptr %19) #3
  %28 = load ptr, ptr %11, align 8, !tbaa !40
  %29 = load i32, ptr %12, align 4, !tbaa !28
  %30 = load ptr, ptr %13, align 8, !tbaa !41
  %31 = load ptr, ptr %14, align 8, !tbaa !40
  %32 = load i32, ptr %15, align 4, !tbaa !28
  %33 = load i64, ptr %16, align 8, !tbaa !4
  %34 = load i64, ptr %17, align 8, !tbaa !4
  %35 = load i32, ptr %18, align 4, !tbaa !28
  invoke void @_Z22IterateFunctionFromCSCPKviPKiS0_illi(ptr dead_on_unwind writable sret(%"class.std::function.197") align 8 %19, ptr noundef %28, i32 noundef %29, ptr noundef %30, ptr noundef %31, i32 noundef %32, i64 noundef %33, i64 noundef %34, i32 noundef %35)
          to label %36 unwind label %39

36:                                               ; preds = %9
  %37 = getelementptr inbounds nuw %class.CSC_RowIterator, ptr %22, i32 0, i32 4
  %38 = call noundef nonnull align 8 dereferenceable(32) ptr @_ZNSt8functionIFSt4pairIidEiEEaSEOS3_(ptr noundef nonnull align 8 dereferenceable(32) %37, ptr noundef nonnull align 8 dereferenceable(32) %19) #3
  call void @_ZNSt14_Function_baseD2Ev(ptr noundef nonnull align 8 dereferenceable(32) %19) #3
  call void @llvm.lifetime.end.p0(i64 32, ptr %19) #3
  ret void

39:                                               ; preds = %9
  %40 = landingpad { ptr, i32 }
          cleanup
  %41 = extractvalue { ptr, i32 } %40, 0
  store ptr %41, ptr %20, align 8
  %42 = extractvalue { ptr, i32 } %40, 1
  store i32 %42, ptr %21, align 4
  call void @llvm.lifetime.end.p0(i64 32, ptr %19) #3
  call void @_ZNSt14_Function_baseD2Ev(ptr noundef nonnull align 8 dereferenceable(32) %27) #3
  br label %43

43:                                               ; preds = %39
  %44 = load ptr, ptr %20, align 8
  %45 = load i32, ptr %21, align 4
  %46 = insertvalue { ptr, i32 } poison, ptr %44, 0
  %47 = insertvalue { ptr, i32 } %46, i32 %45, 1
  resume { ptr, i32 } %47
}