; Function Attrs: mustprogress uwtable
define void @_ZN15CSC_RowIteratorC2EPKviPKiS1_illi(ptr noundef nonnull align 8 dereferenceable(56) initializes((0, 17), (24, 56)) %0, ptr noundef readonly captures(none) %1, i32 noundef %2, ptr noundef %3, ptr noundef %4, i32 noundef %5, i64 noundef %6, i64 %7, i32 noundef %8) unnamed_addr #5 align 2 personality ptr @__gxx_personality_v0 {
  %.sroa.0.i.i.i = alloca { i64, i64 }, align 8
  %10 = alloca %"class.std::function.197", align 8
  %11 = alloca %"class.std::function.197", align 8
  store i32 0, ptr %0, align 8, !tbaa !615
  %12 = getelementptr inbounds nuw i8, ptr %0, i64 4
  store i32 -1, ptr %12, align 4, !tbaa !611
  %13 = getelementptr inbounds nuw i8, ptr %0, i64 8
  store double 0.000000e+00, ptr %13, align 8, !tbaa !617
  %14 = getelementptr inbounds nuw i8, ptr %0, i64 16
  store i8 0, ptr %14, align 8, !tbaa !614
  %15 = getelementptr inbounds nuw i8, ptr %0, i64 24
  tail call void @llvm.memset.p0.i64(ptr noundef nonnull align 8 dereferenceable(32) %15, i8 0, i64 32, i1 false)
  call void @llvm.lifetime.start.p0(i64 32, ptr nonnull %11) #26
  invoke void @_Z22IterateFunctionFromCSCPKviPKiS0_illi(ptr dead_on_unwind nonnull writable sret(%"class.std::function.197") align 8 %11, ptr noundef %1, i32 noundef %2, ptr noundef %3, ptr noundef %4, i32 noundef %5, i64 noundef %6, i64 poison, i32 noundef %8)
          to label %16 unwind label %33

16:                                               ; preds = %9
  call void @llvm.lifetime.start.p0(i64 32, ptr nonnull %10) #26
  %17 = getelementptr inbounds nuw i8, ptr %10, i64 24
  %18 = getelementptr inbounds nuw i8, ptr %11, i64 24
  call void @llvm.memset.p0.i64(ptr noundef nonnull align 8 dereferenceable(32) %10, i8 0, i64 24, i1 false)
  %19 = load ptr, ptr %18, align 8, !tbaa !616
  %20 = getelementptr inbounds nuw i8, ptr %11, i64 16
  %21 = load ptr, ptr %20, align 8, !tbaa !200
  %.not.i.i.not.i.i = icmp eq ptr %21, null
  br i1 %.not.i.i.not.i.i, label %_ZNSt8functionIFSt4pairIidEiEEC2EOS3_.exit.i, label %22

22:                                               ; preds = %16
  call void @llvm.memcpy.p0.p0.i64(ptr noundef nonnull align 8 dereferenceable(32) %10, ptr noundef nonnull align 8 dereferenceable(32) %11, i64 16, i1 false), !tbaa.struct !501
  br label %_ZNSt8functionIFSt4pairIidEiEEC2EOS3_.exit.i

_ZNSt8functionIFSt4pairIidEiEEC2EOS3_.exit.i:     ; preds = %22, %16
  call void @llvm.lifetime.start.p0(i64 16, ptr nonnull %.sroa.0.i.i.i)
  call void @llvm.memcpy.p0.p0.i64(ptr noundef nonnull align 8 dereferenceable(16) %.sroa.0.i.i.i, ptr noundef nonnull align 8 dereferenceable(32) %10, i64 16, i1 false), !tbaa.struct !501
  call void @llvm.memcpy.p0.p0.i64(ptr noundef nonnull align 8 dereferenceable(32) %10, ptr noundef nonnull align 8 dereferenceable(32) %15, i64 16, i1 false), !tbaa.struct !501
  call void @llvm.memcpy.p0.p0.i64(ptr noundef nonnull align 8 dereferenceable(32) %15, ptr noundef nonnull align 8 dereferenceable(16) %.sroa.0.i.i.i, i64 16, i1 false), !tbaa.struct !501
  call void @llvm.lifetime.end.p0(i64 16, ptr nonnull %.sroa.0.i.i.i)
  %23 = getelementptr inbounds nuw i8, ptr %10, i64 16
  %24 = getelementptr inbounds nuw i8, ptr %0, i64 40
  %25 = load ptr, ptr %24, align 8, !tbaa !16
  store ptr %25, ptr %23, align 8, !tbaa !16
  store ptr %21, ptr %24, align 8, !tbaa !16
  %26 = getelementptr inbounds nuw i8, ptr %0, i64 48
  %27 = load ptr, ptr %26, align 8, !tbaa !16
  store ptr %27, ptr %17, align 8, !tbaa !16
  store ptr %19, ptr %26, align 8, !tbaa !16
  %.not.i.i = icmp eq ptr %25, null
  br i1 %.not.i.i, label %_ZNSt14_Function_baseD2Ev.exit, label %28

28:                                               ; preds = %_ZNSt8functionIFSt4pairIidEiEEC2EOS3_.exit.i
  %29 = invoke noundef zeroext i1 %25(ptr noundef nonnull align 8 dereferenceable(32) %10, ptr noundef nonnull align 8 dereferenceable(32) %10, i32 noundef 3)
          to label %_ZNSt14_Function_baseD2Ev.exit unwind label %30

30:                                               ; preds = %28
  %31 = landingpad { ptr, i32 }
          catch ptr null
  %32 = extractvalue { ptr, i32 } %31, 0
  call void @__clang_call_terminate(ptr %32) #40
  unreachable

_ZNSt14_Function_baseD2Ev.exit:                   ; preds = %28, %_ZNSt8functionIFSt4pairIidEiEEC2EOS3_.exit.i
  call void @llvm.lifetime.end.p0(i64 32, ptr nonnull %10) #26
  call void @llvm.lifetime.end.p0(i64 32, ptr nonnull %11) #26
  ret void

33:                                               ; preds = %9
  %34 = landingpad { ptr, i32 }
          cleanup
  call void @llvm.lifetime.end.p0(i64 32, ptr nonnull %11) #26
  %35 = getelementptr inbounds nuw i8, ptr %0, i64 40
  %36 = load ptr, ptr %35, align 8, !tbaa !200
  %.not.i10 = icmp eq ptr %36, null
  br i1 %.not.i10, label %_ZNSt14_Function_baseD2Ev.exit11, label %37

37:                                               ; preds = %33
  %38 = invoke noundef zeroext i1 %36(ptr noundef nonnull align 8 dereferenceable(32) %15, ptr noundef nonnull align 8 dereferenceable(32) %15, i32 noundef 3)
          to label %_ZNSt14_Function_baseD2Ev.exit11 unwind label %39

39:                                               ; preds = %37
  %40 = landingpad { ptr, i32 }
          catch ptr null
  %41 = extractvalue { ptr, i32 } %40, 0
  tail call void @__clang_call_terminate(ptr %41) #40
  unreachable

_ZNSt14_Function_baseD2Ev.exit11:                 ; preds = %33, %37
  resume { ptr, i32 } %34
}